; ModuleID = '3/2918.c'
source_filename = "3/2918.c"
target datalayout = "e-m:e-p270:32:32-p271:32:32-p272:64:64-i64:64-f80:128-n8:16:32:64-S128"
target triple = "x86_64-pc-linux-gnu"

@m = common dso_local global i32 0, align 4
@.str = private unnamed_addr constant [3 x i8] c"no\00", align 1
@.str.1 = private unnamed_addr constant [4 x i8] c"yes\00", align 1
@.str.2 = private unnamed_addr constant [5 x i8] c"%d%d\00", align 1
@n = common dso_local global i32 0, align 4
@k = common dso_local global i32 0, align 4
@.str.3 = private unnamed_addr constant [3 x i8] c"%d\00", align 1
@a = common dso_local global [1000 x i32] zeroinitializer, align 16

; Function Attrs: noinline nounwind uwtable
define dso_local i32 @main() #0 {
  %1 = alloca i32, align 4
  store i32 0, i32* %1, align 4
  %2 = call i32 @read()
  %3 = call i32 @find()
  store i32 %3, i32* @m, align 4
  %4 = load i32, i32* @m, align 4
  %5 = icmp eq i32 %4, 0
  br i1 %5, label %6, label %8

6:                                                ; preds = %0
  %7 = call i32 (i8*, ...) @printf(i8* getelementptr inbounds ([3 x i8], [3 x i8]* @.str, i64 0, i64 0))
  br label %10

8:                                                ; preds = %0
  %9 = call i32 (i8*, ...) @printf(i8* getelementptr inbounds ([4 x i8], [4 x i8]* @.str.1, i64 0, i64 0))
  br label %10

10:                                               ; preds = %8, %6
  ret i32 0
}

declare dso_local i32 @printf(i8*, ...) #1

; Function Attrs: noinline nounwind uwtable
define dso_local i32 @read() #0 {
  %1 = alloca i32, align 4
  %2 = call i32 (i8*, ...) @__isoc99_scanf(i8* getelementptr inbounds ([5 x i8], [5 x i8]* @.str.2, i64 0, i64 0), i32* @n, i32* @k)
  store i32 1, i32* %1, align 4
  br label %3

3:                                                ; preds = %12, %0
  %4 = load i32, i32* %1, align 4
  %5 = load i32, i32* @n, align 4
  %6 = icmp sle i32 %4, %5
  br i1 %6, label %7, label %15

7:                                                ; preds = %3
  %8 = load i32, i32* %1, align 4
  %9 = sext i32 %8 to i64
  %10 = getelementptr inbounds [1000 x i32], [1000 x i32]* @a, i64 0, i64 %9
  %11 = call i32 (i8*, ...) @__isoc99_scanf(i8* getelementptr inbounds ([3 x i8], [3 x i8]* @.str.3, i64 0, i64 0), i32* %10)
  br label %12

12:                                               ; preds = %7
  %13 = load i32, i32* %1, align 4
  %14 = add nsw i32 %13, 1
  store i32 %14, i32* %1, align 4
  br label %3

15:                                               ; preds = %3
  ret i32 0
}

declare dso_local i32 @__isoc99_scanf(i8*, ...) #1

; Function Attrs: noinline nounwind uwtable
define dso_local i32 @find() #0 {
  %1 = alloca i32, align 4
  %2 = alloca i32, align 4
  %3 = alloca i32, align 4
  store i32 1, i32* %2, align 4
  br label %4

4:                                                ; preds = %34, %0
  %5 = load i32, i32* %2, align 4
  %6 = load i32, i32* @n, align 4
  %7 = sub nsw i32 %6, 1
  %8 = icmp sle i32 %5, %7
  br i1 %8, label %9, label %37

9:                                                ; preds = %4
  %10 = load i32, i32* %2, align 4
  %11 = add nsw i32 %10, 1
  store i32 %11, i32* %3, align 4
  br label %12

12:                                               ; preds = %30, %9
  %13 = load i32, i32* %3, align 4
  %14 = load i32, i32* @n, align 4
  %15 = icmp sle i32 %13, %14
  br i1 %15, label %16, label %33

16:                                               ; preds = %12
  %17 = load i32, i32* %2, align 4
  %18 = sext i32 %17 to i64
  %19 = getelementptr inbounds [1000 x i32], [1000 x i32]* @a, i64 0, i64 %18
  %20 = load i32, i32* %19, align 4
  %21 = load i32, i32* %3, align 4
  %22 = sext i32 %21 to i64
  %23 = getelementptr inbounds [1000 x i32], [1000 x i32]* @a, i64 0, i64 %22
  %24 = load i32, i32* %23, align 4
  %25 = add nsw i32 %20, %24
  %26 = load i32, i32* @k, align 4
  %27 = icmp eq i32 %25, %26
  br i1 %27, label %28, label %29

28:                                               ; preds = %16
  store i32 1, i32* %1, align 4
  br label %38

29:                                               ; preds = %16
  br label %30

30:                                               ; preds = %29
  %31 = load i32, i32* %3, align 4
  %32 = add nsw i32 %31, 1
  store i32 %32, i32* %3, align 4
  br label %12

33:                                               ; preds = %12
  br label %34

34:                                               ; preds = %33
  %35 = load i32, i32* %2, align 4
  %36 = add nsw i32 %35, 1
  store i32 %36, i32* %2, align 4
  br label %4

37:                                               ; preds = %4
  store i32 0, i32* %1, align 4
  br label %38

38:                                               ; preds = %37, %28
  %39 = load i32, i32* %1, align 4
  ret i32 %39
}


!llvm.module.flags = !{!0}
!llvm.ident = !{!1}

!0 = !{i32 1, !"wchar_size", i32 4}
!1 = !{!"clang version 10.0.0-4ubuntu1 "}
